target datalayout = "e-m:e-p270:32:32-p271:32:32-p272:64:64-i64:64-i128:128-f80:128-n8:16:32:64-S128"
target triple = "x86_64-pc-linux-gnu"

%struct.PlatformTarget = type { ptr, i32, ptr, ptr, i32, i32, i32, i32, i32, i32, i32, [7 x %struct.AlignData], [7 x %struct.AlignData], [7 x %struct.AlignData], i32, i16, %union.anon.88, i8, i8, i8, i8, i8, i8, i8, i8, i8, i8, %struct.AlignData, i32, i32, i32, i32, i32, i32, i32, i32, i32, i32, i32, i32, i32, i32, i32, i32, ptr }
%union.anon.88 = type { %struct.anon.90 }
%struct.anon.90 = type { %struct.X86Features, i32, i32 }
%struct.X86Features = type { [2 x i64], ptr }
%struct.AlignData = type { i32, i32 }
%struct.Registers = type { i32, i32 }
%struct.Type_ = type { i32, ptr, ptr, ptr, %union.anon.85, ptr, ptr, %union.anon.87 }
%union.anon.85 = type { ptr }
%union.anon.87 = type { %struct.TypeFunction }
%struct.TypeFunction = type { ptr, ptr, ptr }
%struct.AbiType = type { %union.anon.1 }
%union.anon.1 = type { ptr }

@platform_target = external global %struct.PlatformTarget, align 8
@.str = private unnamed_addr constant [36 x i8] c"FATAL ERROR %s -> in %s @ in %s:%d \00", align 1
@.str.1 = private unnamed_addr constant [22 x i8] c"Should be unreachable\00", align 1
@.str.2 = private unnamed_addr constant [114 x i8] c"generated/home/dtcxzyw/WorkSpace/Projects/compilers/llvm-opt-benchmark/bench/c3c/c3c/src/compiler/abi/c_abi_x64.c\00", align 1
@__func__.x64_classify_argument_type = private unnamed_addr constant [27 x i8] c"x64_classify_argument_type\00", align 1

; Function Attrs: nounwind uwtable
define internal i32 @aligned_offset(i32 noundef %0, i32 noundef %1) #0 {
  %3 = alloca i32, align 4
  %4 = alloca i32, align 4
  store i32 %0, ptr %3, align 4
  store i32 %1, ptr %4, align 4
  %5 = load i32, ptr %3, align 4
  %6 = load i32, ptr %4, align 4
  %7 = add i32 %5, %6
  %8 = sub i32 %7, 1
  %9 = load i32, ptr %4, align 4
  %10 = udiv i32 %8, %9
  %11 = load i32, ptr %4, align 4
  %12 = mul i32 %10, %11
  ret i32 %12
}

; Function Attrs: nounwind uwtable
define internal zeroext i1 @abi_type_is_type(ptr %0) #0 {
  %2 = alloca %struct.AbiType, align 8
  %3 = getelementptr inbounds %struct.AbiType, ptr %2, i32 0, i32 0
  %4 = getelementptr inbounds %union.anon.1, ptr %3, i32 0, i32 0
  store ptr %0, ptr %4, align 8
  %5 = getelementptr inbounds %struct.AbiType, ptr %2, i32 0, i32 0
  %6 = load i64, ptr %5, align 8
  %7 = and i64 %6, 1
  %8 = icmp ne i64 %7, 0
  %9 = xor i1 %8, true
  ret i1 %9
}

; Function Attrs: nounwind uwtable
define internal ptr @x64_get_argument_pair_return(ptr %0, ptr %1) #0 {
  %3 = alloca %struct.AbiType, align 8
  %4 = alloca %struct.AbiType, align 8
  %5 = alloca i32, align 4
  %6 = alloca i32, align 4
  %7 = getelementptr inbounds %struct.AbiType, ptr %3, i32 0, i32 0
  %8 = getelementptr inbounds %union.anon.1, ptr %7, i32 0, i32 0
  store ptr %0, ptr %8, align 8
  %9 = getelementptr inbounds %struct.AbiType, ptr %4, i32 0, i32 0
  %10 = getelementptr inbounds %union.anon.1, ptr %9, i32 0, i32 0
  store ptr %1, ptr %10, align 8
  %11 = getelementptr inbounds %struct.AbiType, ptr %3, i32 0, i32 0
  %12 = getelementptr inbounds %union.anon.1, ptr %11, i32 0, i32 0
  %13 = load ptr, ptr %12, align 8
  %14 = call i32 @abi_type_size(ptr %13)
  store i32 %14, ptr %5, align 4
  %15 = load i32, ptr %5, align 4
  %16 = getelementptr inbounds %struct.AbiType, ptr %4, i32 0, i32 0
  %17 = getelementptr inbounds %union.anon.1, ptr %16, i32 0, i32 0
  %18 = load ptr, ptr %17, align 8
  %19 = call i32 @abi_type_abi_alignment(ptr %18)
  %20 = call i32 @aligned_offset(i32 noundef %15, i32 noundef %19)
  store i32 %20, ptr %6, align 4
  %21 = getelementptr inbounds %struct.AbiType, ptr %3, i32 0, i32 0
  %22 = getelementptr inbounds %union.anon.1, ptr %21, i32 0, i32 0
  %23 = load ptr, ptr %22, align 8
  %24 = getelementptr inbounds %struct.AbiType, ptr %4, i32 0, i32 0
  %25 = getelementptr inbounds %union.anon.1, ptr %24, i32 0, i32 0
  %26 = load ptr, ptr %25, align 8
  %27 = call ptr @abi_arg_new_direct_pair(ptr %23, ptr %26)
  ret ptr %27
}

; Function Attrs: nounwind uwtable
define internal zeroext i1 @abi_type_is_valid(ptr %0) #0 {
  %2 = alloca %struct.AbiType, align 8
  %3 = getelementptr inbounds %struct.AbiType, ptr %2, i32 0, i32 0
  %4 = getelementptr inbounds %union.anon.1, ptr %3, i32 0, i32 0
  store ptr %0, ptr %4, align 8
  %5 = getelementptr inbounds %struct.AbiType, ptr %2, i32 0, i32 0
  %6 = load i64, ptr %5, align 8
  %7 = icmp ne i64 %6, 0
  ret i1 %7
}

; Function Attrs: nounwind uwtable
define internal ptr @abi_type_get(ptr noundef %0) #0 {
  %2 = alloca %struct.AbiType, align 8
  %3 = alloca ptr, align 8
  store ptr %0, ptr %3, align 8
  %4 = getelementptr inbounds %struct.AbiType, ptr %2, i32 0, i32 0
  %5 = load ptr, ptr %3, align 8
  store ptr %5, ptr %4, align 8
  %6 = getelementptr inbounds %struct.AbiType, ptr %2, i32 0, i32 0
  %7 = getelementptr inbounds %union.anon.1, ptr %6, i32 0, i32 0
  %8 = load ptr, ptr %7, align 8
  ret ptr %8
}

; Function Attrs: nounwind uwtable
define internal ptr @x64_classify_argument_type(ptr noundef %0, i32 noundef %1, ptr noundef %2, i32 noundef %3) #0 {
  %5 = alloca ptr, align 8
  %6 = alloca i32, align 4
  %7 = alloca ptr, align 8
  %8 = alloca i32, align 4
  %9 = alloca ptr, align 8
  %10 = alloca i32, align 4
  %11 = alloca ptr, align 8
  %12 = alloca ptr, align 8
  %13 = alloca ptr, align 8
  %14 = alloca i32, align 4
  %15 = alloca ptr, align 8
  %16 = alloca i32, align 4
  %17 = alloca i32, align 4
  %18 = alloca i32, align 4
  %19 = alloca %struct.AbiType, align 8
  %20 = alloca %struct.Registers, align 4
  %21 = alloca %struct.AbiType, align 8
  %22 = alloca %struct.AbiType, align 8
  %23 = alloca %struct.AbiType, align 8
  %24 = alloca %struct.AbiType, align 8
  %25 = alloca %struct.AbiType, align 8
  %26 = alloca %struct.AbiType, align 8
  %27 = alloca ptr, align 8
  store ptr %0, ptr %13, align 8
  store i32 %1, ptr %14, align 4
  store ptr %2, ptr %15, align 8
  store i32 %3, ptr %16, align 4
  %28 = load ptr, ptr %13, align 8
  %29 = load i32, ptr %16, align 4
  call void @x64_classify(ptr noundef %28, i64 noundef 0, ptr noundef %18, ptr noundef %17, i32 noundef %29)
  %30 = load ptr, ptr %15, align 8
  %31 = getelementptr inbounds %struct.Registers, ptr %20, i32 0, i32 0
  store i32 0, ptr %31, align 4
  %32 = getelementptr inbounds %struct.Registers, ptr %20, i32 0, i32 1
  store i32 0, ptr %32, align 4
  call void @llvm.memcpy.p0.p0.i64(ptr align 4 %30, ptr align 4 %20, i64 8, i1 false)
  %33 = load i32, ptr %18, align 4
  switch i32 %33, label %100 [
    i32 0, label %34
    i32 4, label %36
    i32 1, label %39
    i32 2, label %43
    i32 3, label %89
  ]

34:                                               ; preds = %4
  %35 = call ptr @abi_arg_ignore()
  store ptr %35, ptr %12, align 8
  br label %220

36:                                               ; preds = %4
  br label %37

37:                                               ; preds = %36
  call void (ptr, ...) @error_exit(ptr noundef @.str, ptr noundef @.str.1, ptr noundef @__func__.x64_classify_argument_type, ptr noundef @.str.2, i32 noundef 793) #5
  unreachable

38:                                               ; No predecessors!
  br label %39

39:                                               ; preds = %38, %4
  %40 = load ptr, ptr %13, align 8
  %41 = load i32, ptr %14, align 4
  %42 = call ptr @x64_indirect_result(ptr noundef %40, i32 noundef %41)
  store ptr %42, ptr %12, align 8
  br label %220

43:                                               ; preds = %4
  %44 = load ptr, ptr %15, align 8
  %45 = getelementptr inbounds %struct.Registers, ptr %44, i32 0, i32 1
  %46 = load i32, ptr %45, align 4
  %47 = add i32 %46, 1
  store i32 %47, ptr %45, align 4
  %48 = load ptr, ptr %13, align 8
  %49 = load ptr, ptr %13, align 8
  %50 = call ptr @x64_get_int_type_at_offset(ptr noundef %48, i32 noundef 0, ptr noundef %49, i32 noundef 0)
  %51 = getelementptr inbounds %struct.AbiType, ptr %21, i32 0, i32 0
  %52 = getelementptr inbounds %union.anon.1, ptr %51, i32 0, i32 0
  store ptr %50, ptr %52, align 8
  call void @llvm.memcpy.p0.p0.i64(ptr align 8 %19, ptr align 8 %21, i64 8, i1 false)
  %53 = load i32, ptr %17, align 4
  %54 = icmp eq i32 %53, 0
  br i1 %54, label %55, label %88

55:                                               ; preds = %43
  %56 = load ptr, ptr %13, align 8
  store ptr %56, ptr %11, align 8
  %57 = load ptr, ptr %11, align 8
  store ptr %57, ptr %9, align 8
  %58 = load ptr, ptr %9, align 8
  %59 = load i32, ptr %58, align 8
  store i32 %59, ptr %10, align 4
  %60 = load i32, ptr %10, align 4
  %61 = icmp eq i32 %60, 31
  br i1 %61, label %62, label %67

62:                                               ; preds = %55
  %63 = load ptr, ptr %9, align 8
  %64 = getelementptr inbounds %struct.Type_, ptr %63, i32 0, i32 1
  %65 = load ptr, ptr %64, align 8
  %66 = load i32, ptr %65, align 8
  store i32 %66, ptr %10, align 4
  br label %67

67:                                               ; preds = %62, %55
  %68 = load i32, ptr %10, align 4
  %69 = icmp uge i32 %68, 2
  br i1 %69, label %70, label %73

70:                                               ; preds = %67
  %71 = load i32, ptr %10, align 4
  %72 = icmp ule i32 %71, 12
  br label %73

73:                                               ; preds = %70, %67
  %74 = phi i1 [ false, %67 ], [ %72, %70 ]
  br i1 %74, label %75, label %82

75:                                               ; preds = %73
  %76 = load ptr, ptr %11, align 8
  %77 = getelementptr inbounds %struct.Type_, ptr %76, i32 0, i32 7
  %78 = load i32, ptr %77, align 8
  %79 = and i32 %78, 255
  %80 = load i32, ptr getelementptr inbounds (%struct.PlatformTarget, ptr @platform_target, i32 0, i32 33), align 8
  %81 = icmp ult i32 %79, %80
  br label %82

82:                                               ; preds = %75, %73
  %83 = phi i1 [ false, %73 ], [ %81, %75 ]
  br i1 %83, label %84, label %88

84:                                               ; preds = %82
  %85 = getelementptr inbounds %struct.AbiType, ptr %19, i32 0, i32 0
  %86 = load ptr, ptr %85, align 8
  %87 = call ptr @abi_arg_new_direct_coerce_int_ext(ptr noundef %86)
  store ptr %87, ptr %12, align 8
  br label %220

88:                                               ; preds = %82, %43
  br label %100

89:                                               ; preds = %4
  %90 = load ptr, ptr %13, align 8
  %91 = load ptr, ptr %13, align 8
  %92 = call ptr @x64_get_sse_type_at_offset(ptr noundef %90, i32 noundef 0, ptr noundef %91, i32 noundef 0)
  %93 = call ptr @abi_type_get(ptr noundef %92)
  %94 = getelementptr inbounds %struct.AbiType, ptr %22, i32 0, i32 0
  %95 = getelementptr inbounds %union.anon.1, ptr %94, i32 0, i32 0
  store ptr %93, ptr %95, align 8
  call void @llvm.memcpy.p0.p0.i64(ptr align 8 %19, ptr align 8 %22, i64 8, i1 false)
  %96 = load ptr, ptr %15, align 8
  %97 = getelementptr inbounds %struct.Registers, ptr %96, i32 0, i32 0
  %98 = load i32, ptr %97, align 4
  %99 = add i32 %98, 1
  store i32 %99, ptr %97, align 4
  br label %100

100:                                              ; preds = %89, %88, %4
  call void @llvm.memset.p0.i64(ptr align 8 %23, i8 0, i64 8, i1 false)
  %101 = load i32, ptr %17, align 4
  switch i32 %101, label %132 [
    i32 1, label %102
    i32 0, label %105
    i32 2, label %106
    i32 3, label %116
    i32 4, label %127
  ]

102:                                              ; preds = %100
  br label %103

103:                                              ; preds = %102
  call void (ptr, ...) @error_exit(ptr noundef @.str, ptr noundef @.str.1, ptr noundef @__func__.x64_classify_argument_type, ptr noundef @.str.2, i32 noundef 816) #5
  unreachable

104:                                              ; No predecessors!
  br label %105

105:                                              ; preds = %104, %100
  br label %132

106:                                              ; preds = %100
  %107 = load ptr, ptr %15, align 8
  %108 = getelementptr inbounds %struct.Registers, ptr %107, i32 0, i32 1
  %109 = load i32, ptr %108, align 4
  %110 = add i32 %109, 1
  store i32 %110, ptr %108, align 4
  %111 = load ptr, ptr %13, align 8
  %112 = load ptr, ptr %13, align 8
  %113 = call ptr @x64_get_int_type_at_offset(ptr noundef %111, i32 noundef 8, ptr noundef %112, i32 noundef 8)
  %114 = getelementptr inbounds %struct.AbiType, ptr %24, i32 0, i32 0
  %115 = getelementptr inbounds %union.anon.1, ptr %114, i32 0, i32 0
  store ptr %113, ptr %115, align 8
  call void @llvm.memcpy.p0.p0.i64(ptr align 8 %23, ptr align 8 %24, i64 8, i1 false)
  br label %132

116:                                              ; preds = %100
  %117 = load ptr, ptr %15, align 8
  %118 = getelementptr inbounds %struct.Registers, ptr %117, i32 0, i32 0
  %119 = load i32, ptr %118, align 4
  %120 = add i32 %119, 1
  store i32 %120, ptr %118, align 4
  %121 = load ptr, ptr %13, align 8
  %122 = load ptr, ptr %13, align 8
  %123 = call ptr @x64_get_sse_type_at_offset(ptr noundef %121, i32 noundef 8, ptr noundef %122, i32 noundef 8)
  %124 = call ptr @abi_type_get(ptr noundef %123)
  %125 = getelementptr inbounds %struct.AbiType, ptr %25, i32 0, i32 0
  %126 = getelementptr inbounds %union.anon.1, ptr %125, i32 0, i32 0
  store ptr %124, ptr %126, align 8
  call void @llvm.memcpy.p0.p0.i64(ptr align 8 %23, ptr align 8 %25, i64 8, i1 false)
  br label %132

127:                                              ; preds = %100
  %128 = load ptr, ptr %13, align 8
  %129 = call ptr @x64_get_byte_vector_type(ptr noundef %128)
  %130 = getelementptr inbounds %struct.AbiType, ptr %26, i32 0, i32 0
  %131 = getelementptr inbounds %union.anon.1, ptr %130, i32 0, i32 0
  store ptr %129, ptr %131, align 8
  call void @llvm.memcpy.p0.p0.i64(ptr align 8 %19, ptr align 8 %26, i64 8, i1 false)
  br label %132

132:                                              ; preds = %127, %116, %106, %105, %100
  %133 = getelementptr inbounds %struct.AbiType, ptr %23, i32 0, i32 0
  %134 = getelementptr inbounds %union.anon.1, ptr %133, i32 0, i32 0
  %135 = load ptr, ptr %134, align 8
  %136 = call zeroext i1 @abi_type_is_valid(ptr %135)
  br i1 %136, label %137, label %145

137:                                              ; preds = %132
  %138 = getelementptr inbounds %struct.AbiType, ptr %19, i32 0, i32 0
  %139 = getelementptr inbounds %union.anon.1, ptr %138, i32 0, i32 0
  %140 = load ptr, ptr %139, align 8
  %141 = getelementptr inbounds %struct.AbiType, ptr %23, i32 0, i32 0
  %142 = getelementptr inbounds %union.anon.1, ptr %141, i32 0, i32 0
  %143 = load ptr, ptr %142, align 8
  %144 = call ptr @x64_get_argument_pair_return(ptr %140, ptr %143)
  store ptr %144, ptr %12, align 8
  br label %220

145:                                              ; preds = %132
  %146 = getelementptr inbounds %struct.AbiType, ptr %19, i32 0, i32 0
  %147 = getelementptr inbounds %union.anon.1, ptr %146, i32 0, i32 0
  %148 = load ptr, ptr %147, align 8
  %149 = call zeroext i1 @abi_type_is_type(ptr %148)
  br i1 %149, label %150, label %218

150:                                              ; preds = %145
  %151 = getelementptr inbounds %struct.AbiType, ptr %19, i32 0, i32 0
  %152 = load ptr, ptr %151, align 8
  %153 = getelementptr inbounds %struct.Type_, ptr %152, i32 0, i32 1
  %154 = load ptr, ptr %153, align 8
  store ptr %154, ptr %27, align 8
  %155 = load ptr, ptr %13, align 8
  %156 = getelementptr inbounds %struct.Type_, ptr %155, i32 0, i32 1
  %157 = load ptr, ptr %156, align 8
  store ptr %157, ptr %13, align 8
  %158 = load ptr, ptr %13, align 8
  %159 = load ptr, ptr %27, align 8
  %160 = icmp eq ptr %158, %159
  br i1 %160, label %161, label %163

161:                                              ; preds = %150
  %162 = call ptr @abi_arg_new_direct()
  store ptr %162, ptr %12, align 8
  br label %220

163:                                              ; preds = %150
  %164 = load ptr, ptr %13, align 8
  store ptr %164, ptr %5, align 8
  %165 = load ptr, ptr %5, align 8
  %166 = load i32, ptr %165, align 8
  store i32 %166, ptr %6, align 4
  %167 = load i32, ptr %6, align 4
  %168 = icmp eq i32 %167, 31
  br i1 %168, label %169, label %174

169:                                              ; preds = %163
  %170 = load ptr, ptr %5, align 8
  %171 = getelementptr inbounds %struct.Type_, ptr %170, i32 0, i32 1
  %172 = load ptr, ptr %171, align 8
  %173 = load i32, ptr %172, align 8
  store i32 %173, ptr %6, align 4
  br label %174

174:                                              ; preds = %169, %163
  %175 = load i32, ptr %6, align 4
  %176 = icmp uge i32 %175, 3
  br i1 %176, label %177, label %180

177:                                              ; preds = %174
  %178 = load i32, ptr %6, align 4
  %179 = icmp ule i32 %178, 12
  br label %180

180:                                              ; preds = %177, %174
  %181 = phi i1 [ false, %174 ], [ %179, %177 ]
  br i1 %181, label %182, label %215

182:                                              ; preds = %180
  %183 = load ptr, ptr %27, align 8
  store ptr %183, ptr %7, align 8
  %184 = load ptr, ptr %7, align 8
  %185 = load i32, ptr %184, align 8
  store i32 %185, ptr %8, align 4
  %186 = load i32, ptr %8, align 4
  %187 = icmp eq i32 %186, 31
  br i1 %187, label %188, label %193

188:                                              ; preds = %182
  %189 = load ptr, ptr %7, align 8
  %190 = getelementptr inbounds %struct.Type_, ptr %189, i32 0, i32 1
  %191 = load ptr, ptr %190, align 8
  %192 = load i32, ptr %191, align 8
  store i32 %192, ptr %8, align 4
  br label %193

193:                                              ; preds = %188, %182
  %194 = load i32, ptr %8, align 4
  %195 = icmp uge i32 %194, 3
  br i1 %195, label %196, label %199

196:                                              ; preds = %193
  %197 = load i32, ptr %8, align 4
  %198 = icmp ule i32 %197, 12
  br label %199

199:                                              ; preds = %196, %193
  %200 = phi i1 [ false, %193 ], [ %198, %196 ]
  br i1 %200, label %201, label %215

201:                                              ; preds = %199
  %202 = load ptr, ptr %13, align 8
  %203 = getelementptr inbounds %struct.Type_, ptr %202, i32 0, i32 7
  %204 = load i32, ptr %203, align 8
  %205 = lshr i32 %204, 8
  %206 = and i32 %205, 255
  %207 = load ptr, ptr %27, align 8
  %208 = getelementptr inbounds %struct.Type_, ptr %207, i32 0, i32 7
  %209 = load i32, ptr %208, align 8
  %210 = lshr i32 %209, 8
  %211 = and i32 %210, 255
  %212 = icmp eq i32 %206, %211
  br i1 %212, label %213, label %215

213:                                              ; preds = %201
  %214 = call ptr @abi_arg_new_direct()
  store ptr %214, ptr %12, align 8
  br label %220

215:                                              ; preds = %201, %199, %180
  %216 = load ptr, ptr %27, align 8
  %217 = call ptr @abi_arg_new_direct_coerce_type(ptr noundef %216)
  store ptr %217, ptr %12, align 8
  br label %220

218:                                              ; preds = %145
  %219 = call ptr @abi_arg_new_direct_coerce_int()
  store ptr %219, ptr %12, align 8
  br label %220

220:                                              ; preds = %218, %215, %213, %161, %137, %84, %39, %34
  %221 = load ptr, ptr %12, align 8
  ret ptr %221
}