; Function Attrs: nounwind uwtable
define internal fastcc ptr @x64_classify_argument_type(ptr noundef %0, i32 noundef %1, ptr nocapture noundef %2, i32 noundef %3) unnamed_addr #1 {
  %5 = alloca i32, align 4
  %6 = alloca i32, align 4
  call fastcc void @x64_classify(ptr noundef %0, i64 noundef 0, ptr noundef nonnull %6, ptr noundef nonnull %5, i32 noundef %3)
  store i32 0, ptr %2, align 4
  %.sroa.2.0..sroa_idx = getelementptr inbounds i8, ptr %2, i64 4
  store i32 0, ptr %.sroa.2.0..sroa_idx, align 4
  %7 = load i32, ptr %6, align 4
  switch i32 %7, label %.critedgethread-pre-split [
    i32 0, label %8
    i32 4, label %10
    i32 1, label %11
    i32 2, label %13
    i32 3, label %35
  ]

8:                                                ; preds = %4
  %9 = tail call ptr @abi_arg_ignore() #7
  br label %100

10:                                               ; preds = %4
  tail call void (ptr, ...) @error_exit(ptr noundef nonnull @.str, ptr noundef nonnull @.str.1, ptr noundef nonnull @__func__.x64_classify_argument_type, ptr noundef nonnull @.str.2, i32 noundef 793) #8
  unreachable

11:                                               ; preds = %4
  %12 = tail call ptr @x64_indirect_result(ptr noundef %0, i32 noundef %1)
  br label %100

13:                                               ; preds = %4
  store i32 1, ptr %.sroa.2.0..sroa_idx, align 4
  %14 = tail call ptr @x64_get_int_type_at_offset(ptr noundef %0, i32 noundef 0, ptr noundef %0, i32 noundef 0)
  %15 = load i32, ptr %5, align 4
  %16 = icmp eq i32 %15, 0
  br i1 %16, label %17, label %.critedge

17:                                               ; preds = %13
  %18 = load i32, ptr %0, align 8
  %19 = icmp eq i32 %18, 31
  br i1 %19, label %20, label %24

20:                                               ; preds = %17
  %21 = getelementptr inbounds i8, ptr %0, i64 8
  %22 = load ptr, ptr %21, align 8
  %23 = load i32, ptr %22, align 8
  br label %24

24:                                               ; preds = %20, %17
  %.056 = phi i32 [ %23, %20 ], [ %18, %17 ]
  %25 = add i32 %.056, -2
  %26 = icmp ult i32 %25, 11
  br i1 %26, label %27, label %.critedgethread-pre-split

27:                                               ; preds = %24
  %28 = getelementptr inbounds i8, ptr %0, i64 56
  %29 = load i32, ptr %28, align 8
  %30 = and i32 %29, 255
  %31 = load i32, ptr getelementptr inbounds (%struct.PlatformTarget, ptr @platform_target, i64 0, i32 33), align 8
  %32 = icmp ult i32 %30, %31
  br i1 %32, label %33, label %.critedgethread-pre-split

33:                                               ; preds = %27
  %34 = tail call ptr @abi_arg_new_direct_coerce_int_ext(ptr noundef %14) #7
  br label %100

35:                                               ; preds = %4
  %36 = tail call fastcc ptr @x64_get_sse_type_at_offset(ptr noundef %0, i32 noundef 0, ptr noundef %0, i32 noundef 0)
  %37 = load i32, ptr %2, align 4
  %38 = add i32 %37, 1
  store i32 %38, ptr %2, align 4
  br label %.critedgethread-pre-split

.critedgethread-pre-split:                        ; preds = %4, %35, %24, %27
  %.sroa.011.0.ph = phi ptr [ %14, %24 ], [ %14, %27 ], [ %36, %35 ], [ undef, %4 ]
  %.pr = load i32, ptr %5, align 4
  br label %.critedge

.critedge:                                        ; preds = %.critedgethread-pre-split, %13
  %39 = phi i32 [ %.pr, %.critedgethread-pre-split ], [ %15, %13 ]
  %.sroa.011.0 = phi ptr [ %.sroa.011.0.ph, %.critedgethread-pre-split ], [ %14, %13 ]
  switch i32 %39, label %.thread [
    i32 1, label %40
    i32 4, label %49
    i32 2, label %41
    i32 3, label %45
  ]

40:                                               ; preds = %.critedge
  tail call void (ptr, ...) @error_exit(ptr noundef nonnull @.str, ptr noundef nonnull @.str.1, ptr noundef nonnull @__func__.x64_classify_argument_type, ptr noundef nonnull @.str.2, i32 noundef 816) #8
  unreachable

41:                                               ; preds = %.critedge
  %42 = load i32, ptr %.sroa.2.0..sroa_idx, align 4
  %43 = add i32 %42, 1
  store i32 %43, ptr %.sroa.2.0..sroa_idx, align 4
  %44 = tail call ptr @x64_get_int_type_at_offset(ptr noundef %0, i32 noundef 8, ptr noundef %0, i32 noundef 8)
  br label %51

45:                                               ; preds = %.critedge
  %46 = load i32, ptr %2, align 4
  %47 = add i32 %46, 1
  store i32 %47, ptr %2, align 4
  %48 = tail call fastcc ptr @x64_get_sse_type_at_offset(ptr noundef %0, i32 noundef 8, ptr noundef %0, i32 noundef 8)
  br label %51

49:                                               ; preds = %.critedge
  %50 = tail call fastcc ptr @x64_get_byte_vector_type(ptr noundef %0)
  br label %.thread

51:                                               ; preds = %45, %41
  %.sroa.06.0 = phi ptr [ %48, %45 ], [ %44, %41 ]
  %.not = icmp eq ptr %.sroa.06.0, null
  br i1 %.not, label %.thread, label %52

52:                                               ; preds = %51
  %53 = tail call i32 @abi_type_size(ptr %.sroa.011.0) #7
  %54 = tail call i32 @abi_type_abi_alignment(ptr nonnull %.sroa.06.0) #7
  %55 = tail call ptr @abi_arg_new_direct_pair(ptr %.sroa.011.0, ptr nonnull %.sroa.06.0) #7
  br label %100

.thread:                                          ; preds = %49, %.critedge, %51
  %.sroa.011.165 = phi ptr [ %.sroa.011.0, %51 ], [ %50, %49 ], [ %.sroa.011.0, %.critedge ]
  %56 = ptrtoint ptr %.sroa.011.165 to i64
  %57 = and i64 %56, 1
  %.not.i = icmp eq i64 %57, 0
  br i1 %.not.i, label %58, label %98

58:                                               ; preds = %.thread
  %59 = getelementptr inbounds i8, ptr %.sroa.011.165, i64 8
  %60 = load ptr, ptr %59, align 8
  %61 = getelementptr inbounds i8, ptr %0, i64 8
  %62 = load ptr, ptr %61, align 8
  %63 = icmp eq ptr %62, %60
  br i1 %63, label %64, label %66

64:                                               ; preds = %58
  %65 = tail call ptr @abi_arg_new_direct() #7
  br label %100

66:                                               ; preds = %58
  %67 = load i32, ptr %62, align 8
  %68 = icmp eq i32 %67, 31
  br i1 %68, label %69, label %73

69:                                               ; preds = %66
  %70 = getelementptr inbounds i8, ptr %62, i64 8
  %71 = load ptr, ptr %70, align 8
  %72 = load i32, ptr %71, align 8
  br label %73

73:                                               ; preds = %69, %66
  %.0 = phi i32 [ %72, %69 ], [ %67, %66 ]
  %74 = add i32 %.0, -3
  %75 = icmp ult i32 %74, 10
  br i1 %75, label %76, label %96

76:                                               ; preds = %73
  %77 = load i32, ptr %60, align 8
  %78 = icmp eq i32 %77, 31
  br i1 %78, label %79, label %83

79:                                               ; preds = %76
  %80 = getelementptr inbounds i8, ptr %60, i64 8
  %81 = load ptr, ptr %80, align 8
  %82 = load i32, ptr %81, align 8
  br label %83

83:                                               ; preds = %79, %76
  %.055 = phi i32 [ %82, %79 ], [ %77, %76 ]
  %84 = add i32 %.055, -3
  %85 = icmp ult i32 %84, 10
  br i1 %85, label %86, label %96

86:                                               ; preds = %83
  %87 = getelementptr inbounds i8, ptr %62, i64 56
  %88 = load i32, ptr %87, align 8
  %89 = getelementptr inbounds i8, ptr %60, i64 56
  %90 = load i32, ptr %89, align 8
  %91 = xor i32 %90, %88
  %92 = and i32 %91, 65280
  %93 = icmp eq i32 %92, 0
  br i1 %93, label %94, label %96

94:                                               ; preds = %86
  %95 = tail call ptr @abi_arg_new_direct() #7
  br label %100

96:                                               ; preds = %86, %83, %73
  %97 = tail call ptr @abi_arg_new_direct_coerce_type(ptr noundef %60) #7
  br label %100

98:                                               ; preds = %.thread
  %99 = tail call ptr @abi_arg_new_direct_coerce_int() #7
  br label %100

100:                                              ; preds = %98, %96, %94, %64, %52, %33, %11, %8
  %.057 = phi ptr [ %55, %52 ], [ %65, %64 ], [ %95, %94 ], [ %97, %96 ], [ %99, %98 ], [ %34, %33 ], [ %12, %11 ], [ %9, %8 ]
  ret ptr %.057
}